; Function Attrs: nounwind uwtable
define noundef ptr @Gia_ManPerformFx(ptr noundef %0, i32 noundef %1, i32 noundef %2, i32 noundef %3, i32 noundef %4, i32 noundef %5) local_unnamed_addr #0 {
  %7 = alloca ptr, align 8
  call void @llvm.lifetime.start.p0(i64 8, ptr nonnull %7) #18
  %8 = getelementptr inbounds nuw i8, ptr %0, i64 24
  %9 = load i32, ptr %8, align 8, !tbaa !29
  %10 = getelementptr inbounds nuw i8, ptr %0, i64 64
  %11 = load ptr, ptr %10, align 8, !tbaa !62
  %12 = getelementptr i8, ptr %11, i64 4
  %.val3.i = load i32, ptr %12, align 4, !tbaa !49
  %13 = getelementptr inbounds nuw i8, ptr %0, i64 72
  %14 = load ptr, ptr %13, align 8, !tbaa !100
  %15 = getelementptr i8, ptr %14, i64 4
  %.val.i = load i32, ptr %15, align 4, !tbaa !49
  %16 = add i32 %.val3.i, 1
  %.neg = add i32 %16, %.val.i
  %17 = icmp eq i32 %9, %.neg
  br i1 %17, label %18, label %20

18:                                               ; preds = %6
  %19 = tail call ptr @Gia_ManDup(ptr noundef nonnull %0) #18
  tail call void @Gia_ManTransferTiming(ptr noundef %19, ptr noundef nonnull %0) #18
  br label %45

20:                                               ; preds = %6
  %21 = call ptr @Gia_ManFxRetrieve(ptr noundef nonnull %0, ptr noundef nonnull %7, i32 noundef %3)
  %22 = load ptr, ptr %7, align 8, !tbaa !75
  %23 = getelementptr i8, ptr %22, i64 4
  %.val = load i32, ptr %23, align 4, !tbaa !74
  %24 = tail call i32 @Fx_FastExtract(ptr noundef %21, i32 noundef %.val, i32 noundef %1, i32 noundef %2, i32 noundef 0, i32 noundef %4, i32 noundef %5) #18
  %25 = tail call ptr @Gia_ManFxInsert(ptr noundef nonnull %0, ptr noundef %21, ptr noundef %22)
  tail call void @Gia_ManTransferTiming(ptr noundef %25, ptr noundef nonnull %0) #18
  %26 = load i32, ptr %21, align 8, !tbaa !69
  %27 = icmp sgt i32 %26, 0
  %28 = getelementptr inbounds nuw i8, ptr %21, i64 8
  %.pre.i.i = load ptr, ptr %28, align 8, !tbaa !70
  br i1 %27, label %.lr.ph.i.i, label %._crit_edge.i.i

.lr.ph.i.i:                                       ; preds = %20, %36
  %29 = phi i32 [ %37, %36 ], [ %26, %20 ]
  %30 = phi ptr [ %38, %36 ], [ %.pre.i.i, %20 ]
  %indvars.iv.i.i = phi i64 [ %indvars.iv.next.i.i, %36 ], [ 0, %20 ]
  %31 = getelementptr inbounds nuw %struct.Vec_Int_t_, ptr %30, i64 %indvars.iv.i.i, i32 2
  %32 = load ptr, ptr %31, align 8, !tbaa !17
  %.not15.i.i = icmp eq ptr %32, null
  br i1 %.not15.i.i, label %36, label %33

33:                                               ; preds = %.lr.ph.i.i
  tail call void @free(ptr noundef nonnull %32) #18
  %34 = load ptr, ptr %28, align 8, !tbaa !70
  %35 = getelementptr inbounds nuw %struct.Vec_Int_t_, ptr %34, i64 %indvars.iv.i.i, i32 2
  store ptr null, ptr %35, align 8, !tbaa !17
  %.pre18.i.i = load i32, ptr %21, align 8, !tbaa !69
  br label %36

36:                                               ; preds = %33, %.lr.ph.i.i
  %37 = phi i32 [ %.pre18.i.i, %33 ], [ %29, %.lr.ph.i.i ]
  %38 = phi ptr [ %34, %33 ], [ %30, %.lr.ph.i.i ]
  %indvars.iv.next.i.i = add nuw nsw i64 %indvars.iv.i.i, 1
  %39 = sext i32 %37 to i64
  %40 = icmp slt i64 %indvars.iv.next.i.i, %39
  br i1 %40, label %.lr.ph.i.i, label %._crit_edge.thread.i.i, !llvm.loop !104

._crit_edge.i.i:                                  ; preds = %20
  %.not.i.i = icmp eq ptr %.pre.i.i, null
  br i1 %.not.i.i, label %Vec_WecFree.exit, label %._crit_edge.thread.i.i

._crit_edge.thread.i.i:                           ; preds = %36, %._crit_edge.i.i
  %41 = phi ptr [ %.pre.i.i, %._crit_edge.i.i ], [ %38, %36 ]
  tail call void @free(ptr noundef nonnull %41) #18
  br label %Vec_WecFree.exit

Vec_WecFree.exit:                                 ; preds = %._crit_edge.i.i, %._crit_edge.thread.i.i
  tail call void @free(ptr noundef nonnull %21) #18
  %42 = getelementptr inbounds nuw i8, ptr %22, i64 8
  %43 = load ptr, ptr %42, align 8, !tbaa !73
  %.not.i = icmp eq ptr %43, null
  br i1 %.not.i, label %Vec_StrFree.exit, label %44

44:                                               ; preds = %Vec_WecFree.exit
  tail call void @free(ptr noundef nonnull %43) #18
  br label %Vec_StrFree.exit

Vec_StrFree.exit:                                 ; preds = %Vec_WecFree.exit, %44
  tail call void @free(ptr noundef nonnull %22) #18
  br label %45

45:                                               ; preds = %Vec_StrFree.exit, %18
  %.0 = phi ptr [ %19, %18 ], [ %25, %Vec_StrFree.exit ]
  call void @llvm.lifetime.end.p0(i64 8, ptr nonnull %7) #18
  ret ptr %.0
}